; Function Attrs: mustprogress uwtable
define hidden noundef zeroext i1 @_ZN3euf13th_euf_solver10add_clauseEN3sat7literalES2_S2_PKNS_13th_proof_hintE(ptr noundef nonnull align 8 dereferenceable(108) %this, i32 %a.coerce, i32 %b.coerce, i32 %c.coerce, ptr noundef %ps) local_unnamed_addr #3 align 2 {
entry:
  %lits = alloca [3 x %"class.sat::literal"], align 4
  store i32 %a.coerce, ptr %lits, align 4
  %arrayinit.element = getelementptr inbounds i8, ptr %lits, i64 4
  store i32 %b.coerce, ptr %arrayinit.element, align 4
  %arrayinit.element4 = getelementptr inbounds i8, ptr %lits, i64 8
  store i32 %c.coerce, ptr %arrayinit.element4, align 4
  %call = call noundef zeroext i1 @_ZN3euf13th_euf_solver10add_clauseEjPN3sat7literalEPKNS_13th_proof_hintEb(ptr noundef nonnull align 8 dereferenceable(108) %this, i32 noundef 3, ptr noundef nonnull %lits, ptr noundef %ps, i1 noundef zeroext false)
  ret i1 %call
}